; Function Attrs: mustprogress uwtable
define hidden void @_ZN7datalog10table_base11ensure_factERK7svectorImjE(ptr noundef nonnull align 8 dereferenceable(36) %0, ptr noundef nonnull align 8 dereferenceable(8) %1) unnamed_addr #3 align 2 {
  %3 = getelementptr inbounds nuw i8, ptr %0, i64 24
  %4 = load i32, ptr %3, align 8, !tbaa !329
  %5 = icmp eq i32 %4, 0
  %6 = load ptr, ptr %0, align 8, !tbaa !3
  br i1 %5, label %11, label %7

7:                                                ; preds = %2
  %8 = getelementptr inbounds nuw i8, ptr %6, i64 160
  %9 = load ptr, ptr %8, align 8
  tail call void %9(ptr noundef nonnull align 8 dereferenceable(36) %0, ptr noundef nonnull align 8 dereferenceable(8) %1)
  %10 = load ptr, ptr %0, align 8, !tbaa !3
  br label %11

11:                                               ; preds = %2, %7
  %.sink = phi ptr [ %10, %7 ], [ %6, %2 ]
  %12 = getelementptr inbounds nuw i8, ptr %.sink, i64 40
  %13 = load ptr, ptr %12, align 8
  tail call void %13(ptr noundef nonnull align 8 dereferenceable(36) %0, ptr noundef nonnull align 8 dereferenceable(8) %1)
  ret void
}